; Function Attrs: mustprogress nofree norecurse nosync nounwind willreturn memory(argmem: write, inaccessiblemem: readwrite) uwtable
define void @_ZThn8_N3gmx16LoggingSignaller24registerLastStepCallbackEv(ptr dead_on_unwind noalias nocapture writable writeonly sret(%"class.std::optional") align 8 %0, ptr noundef %1) unnamed_addr #5 align 2 personality ptr @__gxx_personality_v0 {
  %3 = getelementptr inbounds i8, ptr %1, i64 -8
  tail call void @llvm.experimental.noalias.scope.decl(metadata !10)
  %4 = getelementptr inbounds i8, ptr %1, i64 64
  store i8 1, ptr %4, align 8, !noalias !10
  %5 = getelementptr inbounds i8, ptr %0, i64 16
  %6 = getelementptr inbounds i8, ptr %0, i64 24
  %7 = getelementptr inbounds i8, ptr %0, i64 8
  store i64 0, ptr %7, align 8, !alias.scope !10
  %8 = ptrtoint ptr %3 to i64
  store i64 %8, ptr %0, align 8, !alias.scope !10
  store ptr @"_ZNSt17_Function_handlerIFvldEZN3gmx16LoggingSignaller24registerLastStepCallbackEvE3$_0E9_M_invokeERKSt9_Any_dataOlOd", ptr %6, align 8, !alias.scope !10
  store ptr @"_ZNSt17_Function_handlerIFvldEZN3gmx16LoggingSignaller24registerLastStepCallbackEvE3$_0E10_M_managerERSt9_Any_dataRKS5_St18_Manager_operation", ptr %5, align 8, !alias.scope !10
  %9 = getelementptr inbounds i8, ptr %0, i64 32
  store i8 1, ptr %9, align 8, !alias.scope !10
  ret void
}